; Function Attrs: nofree norecurse nosync nounwind memory(read, argmem: readwrite, inaccessiblemem: none) uwtable
define internal void @filter_simple_low(ptr noundef writeonly captures(none) %0, ptr noundef captures(none) %1, ptr noundef readonly captures(none) %2, i32 noundef %3) #6 {
  %5 = icmp sgt i32 %3, 0
  br i1 %5, label %.lr.ph, label %._crit_edge

.lr.ph:                                           ; preds = %4
  %6 = load i16, ptr %2, align 2, !tbaa !87
  %7 = sext i16 %6 to i32
  %8 = getelementptr inbounds nuw i8, ptr %1, i64 8
  %9 = getelementptr inbounds nuw i8, ptr %2, i64 2
  %10 = load i16, ptr %9, align 2, !tbaa !87
  %11 = sext i16 %10 to i32
  %.promoted = load ptr, ptr %1, align 8, !tbaa !78
  %.promoted11 = load ptr, ptr %8, align 8, !tbaa !78
  br label %12

12:                                               ; preds = %.lr.ph, %12
  %13 = phi ptr [ %.promoted11, %.lr.ph ], [ %19, %12 ]
  %14 = phi ptr [ %.promoted, %.lr.ph ], [ %15, %12 ]
  %.010 = phi i32 [ 0, %.lr.ph ], [ %25, %12 ]
  %.089 = phi ptr [ %0, %.lr.ph ], [ %23, %12 ]
  %15 = getelementptr inbounds nuw i8, ptr %14, i64 1
  store ptr %15, ptr %1, align 8, !tbaa !78
  %16 = load i8, ptr %14, align 1, !tbaa !81
  %17 = zext i8 %16 to i32
  %18 = mul nsw i32 %7, %17
  store i32 %18, ptr %.089, align 4, !tbaa !58
  %19 = getelementptr inbounds nuw i8, ptr %13, i64 1
  store ptr %19, ptr %8, align 8, !tbaa !78
  %20 = load i8, ptr %13, align 1, !tbaa !81
  %21 = zext i8 %20 to i32
  %22 = mul nsw i32 %11, %21
  %23 = getelementptr inbounds nuw i8, ptr %.089, i64 4
  %24 = add nsw i32 %22, %18
  store i32 %24, ptr %.089, align 4, !tbaa !58
  %25 = add nuw nsw i32 %.010, 1
  %exitcond.not = icmp eq i32 %25, %3
  br i1 %exitcond.not, label %._crit_edge, label %12, !llvm.loop !89

._crit_edge:                                      ; preds = %12, %4
  ret void
}